target datalayout = "e-m:e-p270:32:32-p271:32:32-p272:64:64-i64:64-i128:128-f80:128-n8:16:32:64-S128"
target triple = "x86_64-pc-linux-gnu"

%"class.icu_77::MaybeStackArray" = type <{ ptr, i32, i8, [40 x i8], [3 x i8] }>
%"class.icu_77::CharString" = type { %"class.icu_77::MaybeStackArray", i32, [4 x i8] }
%"class.icu_77::StringPiece" = type <{ ptr, i32, [4 x i8] }>

@.str.15 = private unnamed_addr constant [6 x i8] c"en_GB\00", align 1
@.str.16 = private unnamed_addr constant [4 x i8] c"001\00", align 1
@_ZN6icu_7715MaybeStackArrayIcLi40EED1Ev = weak_odr unnamed_addr alias void (ptr), ptr @_ZN6icu_7715MaybeStackArrayIcLi40EED2Ev

; Function Attrs: mustprogress nounwind uwtable
define weak_odr noundef ptr @_ZNK6icu_7715MaybeStackArrayIcLi40EE8getAliasEv(ptr noundef nonnull align 8 dereferenceable(53) %0) #0 comdat align 2 {
  %2 = alloca ptr, align 8
  store ptr %0, ptr %2, align 8, !tbaa !3
  %3 = load ptr, ptr %2, align 8
  %4 = getelementptr inbounds nuw %"class.icu_77::MaybeStackArray", ptr %3, i32 0, i32 0
  %5 = load ptr, ptr %4, align 8, !tbaa !8
  ret ptr %5
}

; Function Attrs: mustprogress nounwind uwtable
define linkonce_odr noundef ptr @_ZNK6icu_7711StringPiece4dataEv(ptr noundef nonnull align 8 dereferenceable(12) %0) #0 comdat align 2 {
  %2 = alloca ptr, align 8
  store ptr %0, ptr %2, align 8, !tbaa !151
  %3 = load ptr, ptr %2, align 8
  %4 = getelementptr inbounds nuw %"class.icu_77::StringPiece", ptr %3, i32 0, i32 0
  %5 = load ptr, ptr %4, align 8, !tbaa !153
  ret ptr %5
}

; Function Attrs: mustprogress nounwind uwtable
define linkonce_odr noundef ptr @_ZNK6icu_7710CharString4dataEv(ptr noundef nonnull align 8 dereferenceable(60) %0) #0 comdat align 2 {
  %2 = alloca ptr, align 8
  store ptr %0, ptr %2, align 8, !tbaa !45
  %3 = load ptr, ptr %2, align 8
  %4 = getelementptr inbounds nuw %"class.icu_77::CharString", ptr %3, i32 0, i32 0
  %5 = call noundef ptr @_ZNK6icu_7715MaybeStackArrayIcLi40EE8getAliasEv(ptr noundef nonnull align 8 dereferenceable(53) %4)
  ret ptr %5
}

; Function Attrs: mustprogress nounwind uwtable
define linkonce_odr noundef i32 @_ZNK6icu_7711StringPiece6lengthEv(ptr noundef nonnull align 8 dereferenceable(12) %0) #0 comdat align 2 {
  %2 = alloca ptr, align 8
  store ptr %0, ptr %2, align 8, !tbaa !151
  %3 = load ptr, ptr %2, align 8
  %4 = getelementptr inbounds nuw %"class.icu_77::StringPiece", ptr %3, i32 0, i32 1
  %5 = load i32, ptr %4, align 8, !tbaa !155
  ret i32 %5
}

; Function Attrs: mustprogress nounwind uwtable
define linkonce_odr void @_ZN6icu_7710CharStringD2Ev(ptr noundef nonnull align 8 dereferenceable(60) %0) unnamed_addr #0 comdat align 2 {
  %2 = alloca ptr, align 8
  store ptr %0, ptr %2, align 8, !tbaa !45
  %3 = load ptr, ptr %2, align 8
  %4 = getelementptr inbounds nuw %"class.icu_77::CharString", ptr %3, i32 0, i32 0
  call void @_ZN6icu_7715MaybeStackArrayIcLi40EED1Ev(ptr noundef nonnull align 8 dereferenceable(53) %4) #12
  ret void
}

; Function Attrs: mustprogress nounwind uwtable
define linkonce_odr noundef ptr @_ZN6icu_7710CharString4dataEv(ptr noundef nonnull align 8 dereferenceable(60) %0) #0 comdat align 2 {
  %2 = alloca ptr, align 8
  store ptr %0, ptr %2, align 8, !tbaa !45
  %3 = load ptr, ptr %2, align 8
  %4 = getelementptr inbounds nuw %"class.icu_77::CharString", ptr %3, i32 0, i32 0
  %5 = call noundef ptr @_ZNK6icu_7715MaybeStackArrayIcLi40EE8getAliasEv(ptr noundef nonnull align 8 dereferenceable(53) %4)
  ret ptr %5
}

; Function Attrs: mustprogress uwtable
define linkonce_odr noundef nonnull align 8 dereferenceable(60) ptr @_ZN6icu_7710CharString6appendENS_11StringPieceER10UErrorCode(ptr noundef nonnull align 8 dereferenceable(60) %0, ptr %1, i32 %2, ptr noundef nonnull align 4 dereferenceable(4) %3) #1 comdat align 2 {
  %5 = alloca %"class.icu_77::StringPiece", align 8
  %6 = alloca ptr, align 8
  %7 = alloca ptr, align 8
  %8 = getelementptr inbounds nuw { ptr, i32 }, ptr %5, i32 0, i32 0
  store ptr %1, ptr %8, align 8
  %9 = getelementptr inbounds nuw { ptr, i32 }, ptr %5, i32 0, i32 1
  store i32 %2, ptr %9, align 8
  store ptr %0, ptr %6, align 8, !tbaa !45
  store ptr %3, ptr %7, align 8, !tbaa !22
  %10 = load ptr, ptr %6, align 8
  %11 = call noundef ptr @_ZNK6icu_7711StringPiece4dataEv(ptr noundef nonnull align 8 dereferenceable(12) %5)
  %12 = call noundef i32 @_ZNK6icu_7711StringPiece6lengthEv(ptr noundef nonnull align 8 dereferenceable(12) %5)
  %13 = load ptr, ptr %7, align 8, !tbaa !22
  %14 = call noundef nonnull align 8 dereferenceable(60) ptr @_ZN6icu_7710CharString6appendEPKciR10UErrorCode(ptr noundef nonnull align 8 dereferenceable(60) %10, ptr noundef %11, i32 noundef %12, ptr noundef nonnull align 4 dereferenceable(4) %13)
  ret ptr %14
}

; Function Attrs: mustprogress uwtable
define linkonce_odr noundef zeroext i1 @_ZNK6icu_7710CharStringeqENS_11StringPieceE(ptr noundef nonnull align 8 dereferenceable(60) %0, ptr %1, i32 %2) #1 comdat align 2 {
  %4 = alloca %"class.icu_77::StringPiece", align 8
  %5 = alloca ptr, align 8
  %6 = getelementptr inbounds nuw { ptr, i32 }, ptr %4, i32 0, i32 0
  store ptr %1, ptr %6, align 8
  %7 = getelementptr inbounds nuw { ptr, i32 }, ptr %4, i32 0, i32 1
  store i32 %2, ptr %7, align 8
  store ptr %0, ptr %5, align 8, !tbaa !45
  %8 = load ptr, ptr %5, align 8
  %9 = getelementptr inbounds nuw %"class.icu_77::CharString", ptr %8, i32 0, i32 1
  %10 = load i32, ptr %9, align 8, !tbaa !65
  %11 = call noundef i32 @_ZNK6icu_7711StringPiece6lengthEv(ptr noundef nonnull align 8 dereferenceable(12) %4)
  %12 = icmp eq i32 %10, %11
  br i1 %12, label %13, label %27

13:                                               ; preds = %3
  %14 = getelementptr inbounds nuw %"class.icu_77::CharString", ptr %8, i32 0, i32 1
  %15 = load i32, ptr %14, align 8, !tbaa !65
  %16 = icmp eq i32 %15, 0
  br i1 %16, label %25, label %17

17:                                               ; preds = %13
  %18 = call noundef ptr @_ZNK6icu_7710CharString4dataEv(ptr noundef nonnull align 8 dereferenceable(60) %8)
  %19 = call noundef ptr @_ZNK6icu_7711StringPiece4dataEv(ptr noundef nonnull align 8 dereferenceable(12) %4)
  %20 = getelementptr inbounds nuw %"class.icu_77::CharString", ptr %8, i32 0, i32 1
  %21 = load i32, ptr %20, align 8, !tbaa !65
  %22 = sext i32 %21 to i64
  %23 = call i32 @memcmp(ptr noundef %18, ptr noundef %19, i64 noundef %22) #15
  %24 = icmp eq i32 %23, 0
  br label %25

25:                                               ; preds = %17, %13
  %26 = phi i1 [ true, %13 ], [ %24, %17 ]
  br label %27

27:                                               ; preds = %25, %3
  %28 = phi i1 [ false, %3 ], [ %26, %25 ]
  ret i1 %28
}

; Function Attrs: mustprogress nounwind uwtable
define linkonce_odr noundef signext i8 @_ZNK6icu_7710CharString7isEmptyEv(ptr noundef nonnull align 8 dereferenceable(60) %0) #0 comdat align 2 {
  %2 = alloca ptr, align 8
  store ptr %0, ptr %2, align 8, !tbaa !45
  %3 = load ptr, ptr %2, align 8
  %4 = getelementptr inbounds nuw %"class.icu_77::CharString", ptr %3, i32 0, i32 1
  %5 = load i32, ptr %4, align 8, !tbaa !65
  %6 = icmp eq i32 %5, 0
  %7 = zext i1 %6 to i8
  ret i8 %7
}

; Function Attrs: mustprogress uwtable
define internal noundef signext i8 @_ZL8fallbackRN6icu_7710CharStringE(ptr noundef nonnull align 8 dereferenceable(60) %0) #1 {
  %2 = alloca i8, align 1
  %3 = alloca ptr, align 8
  %4 = alloca i32, align 4
  %5 = alloca %"class.icu_77::StringPiece", align 8
  %6 = alloca %"class.icu_77::StringPiece", align 8
  %7 = alloca %"class.icu_77::CharString", align 8
  store ptr %0, ptr %3, align 8, !tbaa !45
  %8 = load ptr, ptr %3, align 8, !tbaa !45
  %9 = call noundef signext i8 @_ZNK6icu_7710CharString7isEmptyEv(ptr noundef nonnull align 8 dereferenceable(60) %8)
  %10 = icmp ne i8 %9, 0
  br i1 %10, label %11, label %12

11:                                               ; preds = %1
  store i8 0, ptr %2, align 1
  br label %34

12:                                               ; preds = %1
  call void @llvm.lifetime.start.p0(i64 4, ptr %4) #12
  store i32 0, ptr %4, align 4, !tbaa !15
  %13 = load ptr, ptr %3, align 8, !tbaa !45
  call void @_ZN6icu_7711StringPieceC1EPKc(ptr noundef nonnull align 8 dereferenceable(12) %5, ptr noundef @.str.15)
  %14 = getelementptr inbounds nuw { ptr, i32 }, ptr %5, i32 0, i32 0
  %15 = load ptr, ptr %14, align 8
  %16 = getelementptr inbounds nuw { ptr, i32 }, ptr %5, i32 0, i32 1
  %17 = load i32, ptr %16, align 8
  %18 = call noundef zeroext i1 @_ZNK6icu_7710CharStringeqENS_11StringPieceE(ptr noundef nonnull align 8 dereferenceable(60) %13, ptr %15, i32 %17)
  br i1 %18, label %19, label %28

19:                                               ; preds = %12
  %20 = load ptr, ptr %3, align 8, !tbaa !45
  %21 = call noundef nonnull align 8 dereferenceable(60) ptr @_ZN6icu_7710CharString8truncateEi(ptr noundef nonnull align 8 dereferenceable(60) %20, i32 noundef 3)
  %22 = load ptr, ptr %3, align 8, !tbaa !45
  call void @_ZN6icu_7711StringPieceC1EPKc(ptr noundef nonnull align 8 dereferenceable(12) %6, ptr noundef @.str.16)
  %23 = getelementptr inbounds nuw { ptr, i32 }, ptr %6, i32 0, i32 0
  %24 = load ptr, ptr %23, align 8
  %25 = getelementptr inbounds nuw { ptr, i32 }, ptr %6, i32 0, i32 1
  %26 = load i32, ptr %25, align 8
  %27 = call noundef nonnull align 8 dereferenceable(60) ptr @_ZN6icu_7710CharString6appendENS_11StringPieceER10UErrorCode(ptr noundef nonnull align 8 dereferenceable(60) %22, ptr %24, i32 %26, ptr noundef nonnull align 4 dereferenceable(4) %4)
  br label %33

28:                                               ; preds = %12
  call void @llvm.lifetime.start.p0(i64 64, ptr %7) #12
  %29 = load ptr, ptr %3, align 8, !tbaa !45
  %30 = call noundef ptr @_ZN6icu_7710CharString4dataEv(ptr noundef nonnull align 8 dereferenceable(60) %29)
  call void @_Z20ulocimp_getParent_77PKcR10UErrorCode(ptr dead_on_unwind writable sret(%"class.icu_77::CharString") align 8 %7, ptr noundef %30, ptr noundef nonnull align 4 dereferenceable(4) %4)
  %31 = load ptr, ptr %3, align 8, !tbaa !45
  %32 = call noundef nonnull align 8 dereferenceable(60) ptr @_ZN6icu_7710CharStringaSEOS0_(ptr noundef nonnull align 8 dereferenceable(60) %31, ptr noundef nonnull align 8 dereferenceable(60) %7) #12
  call void @_ZN6icu_7710CharStringD2Ev(ptr noundef nonnull align 8 dereferenceable(60) %7) #12
  call void @llvm.lifetime.end.p0(i64 64, ptr %7) #12
  br label %33

33:                                               ; preds = %28, %19
  store i8 1, ptr %2, align 1
  call void @llvm.lifetime.end.p0(i64 4, ptr %4) #12
  br label %34

34:                                               ; preds = %33, %11
  %35 = load i8, ptr %2, align 1
  ret i8 %35
}