; Function Attrs: mustprogress uwtable
define internal fastcc noundef signext range(i8 0, 2) i8 @_ZL8fallbackRN6icu_7710CharStringE(ptr noundef nonnull align 8 dereferenceable(60) %0) unnamed_addr #1 {
  %2 = alloca i32, align 4
  %3 = alloca %"class.icu_77::StringPiece", align 8
  %4 = alloca %"class.icu_77::StringPiece", align 8
  %5 = alloca %"class.icu_77::CharString", align 8
  %6 = getelementptr inbounds nuw i8, ptr %0, i64 56
  %7 = load i32, ptr %6, align 8, !tbaa !36
  %.not = icmp eq i32 %7, 0
  br i1 %.not, label %27, label %8

8:                                                ; preds = %1
  call void @llvm.lifetime.start.p0(i64 4, ptr nonnull %2) #20
  store i32 0, ptr %2, align 4, !tbaa !13
  call void @_ZN6icu_7711StringPieceC1EPKc(ptr noundef nonnull align 8 dereferenceable(12) %3, ptr noundef nonnull @.str.15)
  %9 = load ptr, ptr %3, align 8
  %10 = getelementptr inbounds nuw i8, ptr %3, i64 8
  %11 = load i32, ptr %10, align 8
  %12 = load i32, ptr %6, align 8, !tbaa !36
  %13 = icmp eq i32 %12, %11
  br i1 %13, label %14, label %._ZNK6icu_7710CharStringeqENS_11StringPieceE.exit.thread6_crit_edge

._ZNK6icu_7710CharStringeqENS_11StringPieceE.exit.thread6_crit_edge: ; preds = %8
  %.pre = load ptr, ptr %0, align 8, !tbaa !3
  br label %_ZNK6icu_7710CharStringeqENS_11StringPieceE.exit.thread6

14:                                               ; preds = %8
  %15 = icmp eq i32 %11, 0
  br i1 %15, label %_ZNK6icu_7710CharStringeqENS_11StringPieceE.exit.thread, label %_ZNK6icu_7710CharStringeqENS_11StringPieceE.exit

_ZNK6icu_7710CharStringeqENS_11StringPieceE.exit: ; preds = %14
  %16 = load ptr, ptr %0, align 8, !tbaa !3
  %17 = sext i32 %11 to i64
  %bcmp.i = call i32 @bcmp(ptr %16, ptr %9, i64 %17)
  %18 = icmp eq i32 %bcmp.i, 0
  br i1 %18, label %_ZNK6icu_7710CharStringeqENS_11StringPieceE.exit.thread, label %_ZNK6icu_7710CharStringeqENS_11StringPieceE.exit.thread6

_ZNK6icu_7710CharStringeqENS_11StringPieceE.exit.thread: ; preds = %14, %_ZNK6icu_7710CharStringeqENS_11StringPieceE.exit
  %19 = call noundef nonnull align 8 dereferenceable(60) ptr @_ZN6icu_7710CharString8truncateEi(ptr noundef nonnull align 8 dereferenceable(60) %0, i32 noundef 3)
  call void @_ZN6icu_7711StringPieceC1EPKc(ptr noundef nonnull align 8 dereferenceable(12) %4, ptr noundef nonnull @.str.16)
  %20 = load ptr, ptr %4, align 8
  %21 = getelementptr inbounds nuw i8, ptr %4, i64 8
  %22 = load i32, ptr %21, align 8
  %23 = call noundef nonnull align 8 dereferenceable(60) ptr @_ZN6icu_7710CharString6appendEPKciR10UErrorCode(ptr noundef nonnull align 8 dereferenceable(60) %0, ptr noundef %20, i32 noundef %22, ptr noundef nonnull align 4 dereferenceable(4) %2)
  br label %26

_ZNK6icu_7710CharStringeqENS_11StringPieceE.exit.thread6: ; preds = %._ZNK6icu_7710CharStringeqENS_11StringPieceE.exit.thread6_crit_edge, %_ZNK6icu_7710CharStringeqENS_11StringPieceE.exit
  %24 = phi ptr [ %.pre, %._ZNK6icu_7710CharStringeqENS_11StringPieceE.exit.thread6_crit_edge ], [ %16, %_ZNK6icu_7710CharStringeqENS_11StringPieceE.exit ]
  call void @llvm.lifetime.start.p0(i64 64, ptr nonnull %5) #20
  call void @_Z20ulocimp_getParent_77PKcR10UErrorCode(ptr dead_on_unwind nonnull writable sret(%"class.icu_77::CharString") align 8 %5, ptr noundef %24, ptr noundef nonnull align 4 dereferenceable(4) %2)
  %25 = call noundef nonnull align 8 dereferenceable(60) ptr @_ZN6icu_7710CharStringaSEOS0_(ptr noundef nonnull align 8 dereferenceable(60) %0, ptr noundef nonnull align 8 dereferenceable(60) %5) #20
  call void @_ZN6icu_7715MaybeStackArrayIcLi40EED1Ev(ptr noundef nonnull align 8 dereferenceable(60) %5) #20
  call void @llvm.lifetime.end.p0(i64 64, ptr nonnull %5) #20
  br label %26

26:                                               ; preds = %_ZNK6icu_7710CharStringeqENS_11StringPieceE.exit.thread6, %_ZNK6icu_7710CharStringeqENS_11StringPieceE.exit.thread
  call void @llvm.lifetime.end.p0(i64 4, ptr nonnull %2) #20
  br label %27

27:                                               ; preds = %1, %26
  %.0 = phi i8 [ 1, %26 ], [ 0, %1 ]
  ret i8 %.0
}